; Function Attrs: mustprogress nofree norecurse nosync nounwind willreturn memory(read, inaccessiblemem: none) uwtable
define hidden noundef i32 @_ZNK12solver_na2as15get_scope_levelEv(ptr nocapture noundef nonnull readonly align 8 dereferenceable(120) %this) unnamed_addr #11 align 2 {
entry:
  %m_scopes = getelementptr inbounds i8, ptr %this, i64 112
  %0 = load ptr, ptr %m_scopes, align 8
  %cmp.i = icmp eq ptr %0, null
  br i1 %cmp.i, label %_ZNK6vectorIjLb0EjE4sizeEv.exit, label %if.end.i

if.end.i:                                         ; preds = %entry
  %arrayidx.i = getelementptr inbounds i8, ptr %0, i64 -4
  %1 = load i32, ptr %arrayidx.i, align 4
  br label %_ZNK6vectorIjLb0EjE4sizeEv.exit

_ZNK6vectorIjLb0EjE4sizeEv.exit:                  ; preds = %entry, %if.end.i
  %retval.0.i = phi i32 [ %1, %if.end.i ], [ 0, %entry ]
  ret i32 %retval.0.i
}